; ModuleID = 'source-C-CXX/27/88.c'
source_filename = "source-C-CXX/27/88.c"
target datalayout = "e-m:e-p270:32:32-p271:32:32-p272:64:64-i64:64-f80:128-n8:16:32:64-S128"
target triple = "x86_64-pc-linux-gnu"

@.str = private unnamed_addr constant [4 x i8] c"%d,\00", align 1
@.str.1 = private unnamed_addr constant [3 x i8] c"%d\00", align 1

; Function Attrs: nounwind sspstrong uwtable
define dso_local void @main() local_unnamed_addr #0 {
  %1 = alloca [300 x i32], align 16
  %2 = alloca [1200 x i8], align 16
  %3 = bitcast [300 x i32]* %1 to i8*
  call void @llvm.lifetime.start.p0i8(i64 1200, i8* nonnull %3) #5
  %4 = getelementptr inbounds [1200 x i8], [1200 x i8]* %2, i64 0, i64 0
  call void @llvm.lifetime.start.p0i8(i64 1200, i8* nonnull %4) #5
  %5 = call i32 (i8*, ...) bitcast (i32 (...)* @gets to i32 (i8*, ...)*)(i8* nonnull %4) #5
  %6 = call i64 @strlen(i8* noundef nonnull %4) #6
  %7 = trunc i64 %6 to i32
  %8 = icmp sgt i32 %7, 0
  br i1 %8, label %9, label %45

9:                                                ; preds = %0
  %10 = and i64 %6, 4294967295
  br label %16

11:                                               ; preds = %34
  %12 = icmp slt i32 %36, 1
  br i1 %12, label %45, label %13

13:                                               ; preds = %11
  %14 = add nuw i32 %36, 1
  %15 = zext i32 %14 to i64
  br label %38

16:                                               ; preds = %9, %34
  %17 = phi i64 [ 0, %9 ], [ %25, %34 ]
  %18 = phi i32 [ 0, %9 ], [ %36, %34 ]
  %19 = phi i32 [ 0, %9 ], [ %35, %34 ]
  %20 = getelementptr inbounds [1200 x i8], [1200 x i8]* %2, i64 0, i64 %17
  %21 = load i8, i8* %20, align 1, !tbaa !5
  %22 = icmp eq i8 %21, 32
  %23 = add nsw i32 %19, 1
  %24 = select i1 %22, i32 %19, i32 %23
  %25 = add nuw nsw i64 %17, 1
  br i1 %22, label %26, label %34

26:                                               ; preds = %16
  %27 = getelementptr inbounds [1200 x i8], [1200 x i8]* %2, i64 0, i64 %25
  %28 = load i8, i8* %27, align 1, !tbaa !5
  %29 = icmp eq i8 %28, 32
  br i1 %29, label %34, label %30

30:                                               ; preds = %26
  %31 = add nsw i32 %18, 1
  %32 = sext i32 %31 to i64
  %33 = getelementptr inbounds [300 x i32], [300 x i32]* %1, i64 0, i64 %32
  store i32 %24, i32* %33, align 4, !tbaa !8
  br label %34

34:                                               ; preds = %16, %26, %30
  %35 = phi i32 [ %19, %26 ], [ 0, %30 ], [ %23, %16 ]
  %36 = phi i32 [ %18, %26 ], [ %31, %30 ], [ %18, %16 ]
  %37 = icmp eq i64 %25, %10
  br i1 %37, label %11, label %16, !llvm.loop !10

38:                                               ; preds = %13, %38
  %39 = phi i64 [ 1, %13 ], [ %43, %38 ]
  %40 = getelementptr inbounds [300 x i32], [300 x i32]* %1, i64 0, i64 %39
  %41 = load i32, i32* %40, align 4, !tbaa !8
  %42 = call i32 (i8*, ...) @printf(i8* nonnull dereferenceable(1) getelementptr inbounds ([4 x i8], [4 x i8]* @.str, i64 0, i64 0), i32 %41)
  %43 = add nuw nsw i64 %39, 1
  %44 = icmp eq i64 %43, %15
  br i1 %44, label %45, label %38, !llvm.loop !12

45:                                               ; preds = %38, %0, %11
  %46 = phi i32 [ %35, %11 ], [ 0, %0 ], [ %35, %38 ]
  %47 = call i32 (i8*, ...) @printf(i8* nonnull dereferenceable(1) getelementptr inbounds ([3 x i8], [3 x i8]* @.str.1, i64 0, i64 0), i32 %46)
  call void @llvm.lifetime.end.p0i8(i64 1200, i8* nonnull %4) #5
  call void @llvm.lifetime.end.p0i8(i64 1200, i8* nonnull %3) #5
  ret void
}

; Function Attrs: argmemonly mustprogress nofree nosync nounwind willreturn
declare void @llvm.lifetime.start.p0i8(i64 immarg, i8* nocapture) #1

declare i32 @gets(...) local_unnamed_addr #2

; Function Attrs: argmemonly mustprogress nofree nounwind readonly willreturn
declare i64 @strlen(i8* nocapture) local_unnamed_addr #3

; Function Attrs: nofree nounwind
declare noundef i32 @printf(i8* nocapture noundef readonly, ...) local_unnamed_addr #4

; Function Attrs: argmemonly mustprogress nofree nosync nounwind willreturn
declare void @llvm.lifetime.end.p0i8(i64 immarg, i8* nocapture) #1


!llvm.module.flags = !{!0, !1, !2, !3}
!llvm.ident = !{!4}

!0 = !{i32 1, !"wchar_size", i32 4}
!1 = !{i32 7, !"PIC Level", i32 2}
!2 = !{i32 7, !"PIE Level", i32 2}
!3 = !{i32 7, !"uwtable", i32 1}
!4 = !{!"clang version 13.0.0"}
!5 = !{!6, !6, i64 0}
!6 = !{!"omnipotent char", !7, i64 0}
!7 = !{!"Simple C/C++ TBAA"}
!8 = !{!9, !9, i64 0}
!9 = !{!"int", !6, i64 0}
!10 = distinct !{!10, !11}
!11 = !{!"llvm.loop.mustprogress"}
!12 = distinct !{!12, !11}
